target datalayout = "e-m:e-p270:32:32-p271:32:32-p272:64:64-i64:64-i128:128-f80:128-n8:16:32:64-S128"
target triple = "x86_64-pc-linux-gnu"

%struct.slurm_step_layout = type { ptr, i32, ptr, ptr, ptr, i32, ptr, i16, i16, ptr, i32, i32, ptr }
%struct.slurm_step_layout_req_t = type { ptr, ptr, ptr, i32, i32, ptr, ptr, i32, i16 }

@.str = private unnamed_addr constant [20 x i8] c"slurm_step_layout.c\00", align 1
@__func__.slurm_step_layout_create = private unnamed_addr constant [25 x i8] c"slurm_step_layout_create\00", align 1

; Function Attrs: nounwind uwtable
define dso_local ptr @slurm_step_layout_create(ptr noundef %0) #0 {
  %2 = alloca ptr, align 8
  %3 = alloca ptr, align 8
  %4 = alloca ptr, align 8
  %5 = alloca i32, align 4
  %6 = alloca ptr, align 8
  %7 = alloca ptr, align 8
  store ptr %0, ptr %2, align 8
  call void @llvm.lifetime.start.p0(i64 8, ptr %3) #7
  store ptr null, ptr %3, align 8
  call void @llvm.lifetime.start.p0(i64 8, ptr %4) #7
  %8 = call ptr @slurm_xcalloc(i64 noundef 1, i64 noundef 88, i1 noundef zeroext true, i1 noundef zeroext false, ptr noundef @.str, i32 noundef 80, ptr noundef @__func__.slurm_step_layout_create)
  store ptr %8, ptr %4, align 8
  call void @llvm.lifetime.start.p0(i64 4, ptr %5) #7
  %9 = call i32 @slurmdb_setup_cluster_flags()
  store i32 %9, ptr %5, align 4
  %10 = load ptr, ptr %2, align 8
  %11 = getelementptr inbounds nuw %struct.slurm_step_layout_req_t, ptr %10, i32 0, i32 7
  %12 = load i32, ptr %11, align 8
  %13 = load ptr, ptr %4, align 8
  %14 = getelementptr inbounds nuw %struct.slurm_step_layout, ptr %13, i32 0, i32 11
  store i32 %12, ptr %14, align 4
  %15 = load ptr, ptr %4, align 8
  %16 = getelementptr inbounds nuw %struct.slurm_step_layout, ptr %15, i32 0, i32 11
  %17 = load i32, ptr %16, align 4
  %18 = and i32 %17, 65535
  %19 = icmp eq i32 %18, 3
  br i1 %19, label %20, label %40

20:                                               ; preds = %1
  call void @llvm.lifetime.start.p0(i64 8, ptr %6) #7
  store ptr null, ptr %6, align 8
  call void @llvm.lifetime.start.p0(i64 8, ptr %7) #7
  store ptr null, ptr %7, align 8
  %21 = load ptr, ptr %2, align 8
  %22 = getelementptr inbounds nuw %struct.slurm_step_layout_req_t, ptr %21, i32 0, i32 0
  %23 = load ptr, ptr %22, align 8
  %24 = call ptr @xstrdup(ptr noundef %23)
  store ptr %24, ptr %3, align 8
  %25 = load ptr, ptr %2, align 8
  %26 = getelementptr inbounds nuw %struct.slurm_step_layout_req_t, ptr %25, i32 0, i32 0
  %27 = load ptr, ptr %26, align 8
  %28 = call ptr @hostlist_create(ptr noundef %27)
  store ptr %28, ptr %6, align 8
  %29 = load ptr, ptr %6, align 8
  call void @hostlist_uniq(ptr noundef %29)
  %30 = load ptr, ptr %6, align 8
  %31 = call ptr @hostlist_ranged_string_xmalloc(ptr noundef %30)
  store ptr %31, ptr %7, align 8
  %32 = load ptr, ptr %6, align 8
  %33 = call i32 @hostlist_count(ptr noundef %32)
  %34 = load ptr, ptr %2, align 8
  %35 = getelementptr inbounds nuw %struct.slurm_step_layout_req_t, ptr %34, i32 0, i32 3
  store i32 %33, ptr %35, align 8
  %36 = load ptr, ptr %6, align 8
  call void @hostlist_destroy(ptr noundef %36)
  %37 = load ptr, ptr %7, align 8
  %38 = load ptr, ptr %4, align 8
  %39 = getelementptr inbounds nuw %struct.slurm_step_layout, ptr %38, i32 0, i32 6
  store ptr %37, ptr %39, align 8
  call void @llvm.lifetime.end.p0(i64 8, ptr %7) #7
  call void @llvm.lifetime.end.p0(i64 8, ptr %6) #7
  br label %47

40:                                               ; preds = %1
  %41 = load ptr, ptr %2, align 8
  %42 = getelementptr inbounds nuw %struct.slurm_step_layout_req_t, ptr %41, i32 0, i32 0
  %43 = load ptr, ptr %42, align 8
  %44 = call ptr @xstrdup(ptr noundef %43)
  %45 = load ptr, ptr %4, align 8
  %46 = getelementptr inbounds nuw %struct.slurm_step_layout, ptr %45, i32 0, i32 6
  store ptr %44, ptr %46, align 8
  br label %47

47:                                               ; preds = %40, %20
  %48 = load ptr, ptr %2, align 8
  %49 = getelementptr inbounds nuw %struct.slurm_step_layout_req_t, ptr %48, i32 0, i32 4
  %50 = load i32, ptr %49, align 4
  %51 = load ptr, ptr %4, align 8
  %52 = getelementptr inbounds nuw %struct.slurm_step_layout, ptr %51, i32 0, i32 10
  store i32 %50, ptr %52, align 8
  %53 = load i32, ptr %5, align 4
  %54 = zext i32 %53 to i64
  %55 = and i64 %54, 512
  %56 = icmp ne i64 %55, 0
  br i1 %56, label %57, label %60

57:                                               ; preds = %47
  %58 = load ptr, ptr %4, align 8
  %59 = getelementptr inbounds nuw %struct.slurm_step_layout, ptr %58, i32 0, i32 5
  store i32 1, ptr %59, align 8
  br label %66

60:                                               ; preds = %47
  %61 = load ptr, ptr %2, align 8
  %62 = getelementptr inbounds nuw %struct.slurm_step_layout_req_t, ptr %61, i32 0, i32 3
  %63 = load i32, ptr %62, align 8
  %64 = load ptr, ptr %4, align 8
  %65 = getelementptr inbounds nuw %struct.slurm_step_layout, ptr %64, i32 0, i32 5
  store i32 %63, ptr %65, align 8
  br label %66

66:                                               ; preds = %60, %57
  %67 = load ptr, ptr %2, align 8
  %68 = load ptr, ptr %4, align 8
  %69 = load ptr, ptr %3, align 8
  %70 = call i32 @_init_task_layout(ptr noundef %67, ptr noundef %68, ptr noundef %69)
  %71 = icmp ne i32 %70, 0
  br i1 %71, label %72, label %75

72:                                               ; preds = %66
  %73 = load ptr, ptr %4, align 8
  %74 = call i32 @slurm_step_layout_destroy(ptr noundef %73)
  store ptr null, ptr %4, align 8
  br label %75

75:                                               ; preds = %72, %66
  call void @slurm_xfree(ptr noundef %3)
  %76 = load ptr, ptr %4, align 8
  call void @llvm.lifetime.end.p0(i64 4, ptr %5) #7
  call void @llvm.lifetime.end.p0(i64 8, ptr %4) #7
  call void @llvm.lifetime.end.p0(i64 8, ptr %3) #7
  ret ptr %76
}