; Function Attrs: nounwind uwtable
define dso_local ptr @slurm_step_layout_create(ptr noundef captures(none) %0) local_unnamed_addr #0 {
  %2 = alloca ptr, align 8
  call void @llvm.lifetime.start.p0(i64 8, ptr nonnull %2) #7
  store ptr null, ptr %2, align 8
  %3 = tail call ptr @slurm_xcalloc(i64 noundef 1, i64 noundef 88, i1 noundef zeroext true, i1 noundef zeroext false, ptr noundef nonnull @.str, i32 noundef 80, ptr noundef nonnull @__func__.slurm_step_layout_create) #7
  %4 = tail call i32 @slurmdb_setup_cluster_flags() #7
  %5 = getelementptr inbounds nuw i8, ptr %0, i64 48
  %6 = load i32, ptr %5, align 8
  %7 = getelementptr inbounds nuw i8, ptr %3, i64 76
  store i32 %6, ptr %7, align 4
  %8 = and i32 %6, 65535
  %9 = icmp eq i32 %8, 3
  %10 = load ptr, ptr %0, align 8
  %11 = tail call ptr @xstrdup(ptr noundef %10) #7
  br i1 %9, label %12, label %18

12:                                               ; preds = %1
  store ptr %11, ptr %2, align 8
  %13 = load ptr, ptr %0, align 8
  %14 = tail call ptr @hostlist_create(ptr noundef %13) #7
  tail call void @hostlist_uniq(ptr noundef %14) #7
  %15 = tail call ptr @hostlist_ranged_string_xmalloc(ptr noundef %14) #7
  %16 = tail call i32 @hostlist_count(ptr noundef %14) #7
  %17 = getelementptr inbounds nuw i8, ptr %0, i64 24
  store i32 %16, ptr %17, align 8
  tail call void @hostlist_destroy(ptr noundef %14) #7
  br label %18

18:                                               ; preds = %1, %12
  %19 = phi ptr [ %11, %12 ], [ null, %1 ]
  %.sink = phi ptr [ %15, %12 ], [ %11, %1 ]
  %20 = getelementptr inbounds nuw i8, ptr %3, i64 48
  store ptr %.sink, ptr %20, align 8
  %21 = getelementptr inbounds nuw i8, ptr %0, i64 28
  %22 = load i32, ptr %21, align 4
  %23 = getelementptr inbounds nuw i8, ptr %3, i64 72
  store i32 %22, ptr %23, align 8
  %24 = and i32 %4, 512
  %.not = icmp eq i32 %24, 0
  br i1 %.not, label %25, label %28

25:                                               ; preds = %18
  %26 = getelementptr inbounds nuw i8, ptr %0, i64 24
  %27 = load i32, ptr %26, align 8
  br label %28

28:                                               ; preds = %18, %25
  %.sink24 = phi i32 [ %27, %25 ], [ 1, %18 ]
  %29 = getelementptr inbounds nuw i8, ptr %3, i64 40
  store i32 %.sink24, ptr %29, align 8
  %30 = tail call fastcc i32 @_init_task_layout(ptr noundef nonnull %0, ptr noundef nonnull %3, ptr noundef %19)
  %.not23 = icmp eq i32 %30, 0
  br i1 %.not23, label %33, label %31

31:                                               ; preds = %28
  %32 = tail call i32 @slurm_step_layout_destroy(ptr noundef nonnull %3)
  br label %33

33:                                               ; preds = %31, %28
  %.0 = phi ptr [ null, %31 ], [ %3, %28 ]
  call void @slurm_xfree(ptr noundef nonnull %2) #7
  call void @llvm.lifetime.end.p0(i64 8, ptr nonnull %2) #7
  ret ptr %.0
}